target datalayout = "e-m:e-p270:32:32-p271:32:32-p272:64:64-i64:64-i128:128-f80:128-n8:16:32:64-S128"
target triple = "x86_64-pc-linux-gnu"

%struct.H5O_token_t = type { [16 x i8] }
%struct.trav_table_t = type { i64, i64, i64, ptr }
%struct.trav_obj_t = type { %struct.H5O_token_t, [2 x i32], i8, ptr, i32, ptr, i64, i64 }
%struct.trav_link_t = type { ptr }

; Function Attrs: nounwind uwtable
define void @trav_table_free(ptr noundef %0) #0 {
  %2 = alloca ptr, align 8
  %3 = alloca i32, align 4
  %4 = alloca i32, align 4
  store ptr %0, ptr %2, align 8, !tbaa !77
  %5 = load ptr, ptr %2, align 8, !tbaa !77
  %6 = icmp ne ptr %5, null
  br i1 %6, label %7, label %87

7:                                                ; preds = %1
  %8 = load ptr, ptr %2, align 8, !tbaa !77
  %9 = getelementptr inbounds nuw %struct.trav_table_t, ptr %8, i32 0, i32 3
  %10 = load ptr, ptr %9, align 8, !tbaa !82
  %11 = icmp ne ptr %10, null
  br i1 %11, label %12, label %85

12:                                               ; preds = %7
  call void @llvm.lifetime.start.p0(i64 4, ptr %3) #10
  store i32 0, ptr %3, align 4, !tbaa !3
  br label %13

13:                                               ; preds = %78, %12
  %14 = load i32, ptr %3, align 4, !tbaa !3
  %15 = zext i32 %14 to i64
  %16 = load ptr, ptr %2, align 8, !tbaa !77
  %17 = getelementptr inbounds nuw %struct.trav_table_t, ptr %16, i32 0, i32 2
  %18 = load i64, ptr %17, align 8, !tbaa !79
  %19 = icmp ult i64 %15, %18
  br i1 %19, label %20, label %81

20:                                               ; preds = %13
  %21 = load ptr, ptr %2, align 8, !tbaa !77
  %22 = getelementptr inbounds nuw %struct.trav_table_t, ptr %21, i32 0, i32 3
  %23 = load ptr, ptr %22, align 8, !tbaa !82
  %24 = load i32, ptr %3, align 4, !tbaa !3
  %25 = zext i32 %24 to i64
  %26 = getelementptr inbounds nuw %struct.trav_obj_t, ptr %23, i64 %25
  %27 = getelementptr inbounds nuw %struct.trav_obj_t, ptr %26, i32 0, i32 3
  %28 = load ptr, ptr %27, align 8, !tbaa !83
  call void @free(ptr noundef %28) #10
  %29 = load ptr, ptr %2, align 8, !tbaa !77
  %30 = getelementptr inbounds nuw %struct.trav_table_t, ptr %29, i32 0, i32 3
  %31 = load ptr, ptr %30, align 8, !tbaa !82
  %32 = load i32, ptr %3, align 4, !tbaa !3
  %33 = zext i32 %32 to i64
  %34 = getelementptr inbounds nuw %struct.trav_obj_t, ptr %31, i64 %33
  %35 = getelementptr inbounds nuw %struct.trav_obj_t, ptr %34, i32 0, i32 7
  %36 = load i64, ptr %35, align 8, !tbaa !86
  %37 = icmp ne i64 %36, 0
  br i1 %37, label %38, label %77

38:                                               ; preds = %20
  call void @llvm.lifetime.start.p0(i64 4, ptr %4) #10
  store i32 0, ptr %4, align 4, !tbaa !3
  br label %39

39:                                               ; preds = %65, %38
  %40 = load i32, ptr %4, align 4, !tbaa !3
  %41 = zext i32 %40 to i64
  %42 = load ptr, ptr %2, align 8, !tbaa !77
  %43 = getelementptr inbounds nuw %struct.trav_table_t, ptr %42, i32 0, i32 3
  %44 = load ptr, ptr %43, align 8, !tbaa !82
  %45 = load i32, ptr %3, align 4, !tbaa !3
  %46 = zext i32 %45 to i64
  %47 = getelementptr inbounds nuw %struct.trav_obj_t, ptr %44, i64 %46
  %48 = getelementptr inbounds nuw %struct.trav_obj_t, ptr %47, i32 0, i32 7
  %49 = load i64, ptr %48, align 8, !tbaa !86
  %50 = icmp ult i64 %41, %49
  br i1 %50, label %51, label %68

51:                                               ; preds = %39
  %52 = load ptr, ptr %2, align 8, !tbaa !77
  %53 = getelementptr inbounds nuw %struct.trav_table_t, ptr %52, i32 0, i32 3
  %54 = load ptr, ptr %53, align 8, !tbaa !82
  %55 = load i32, ptr %3, align 4, !tbaa !3
  %56 = zext i32 %55 to i64
  %57 = getelementptr inbounds nuw %struct.trav_obj_t, ptr %54, i64 %56
  %58 = getelementptr inbounds nuw %struct.trav_obj_t, ptr %57, i32 0, i32 5
  %59 = load ptr, ptr %58, align 8, !tbaa !87
  %60 = load i32, ptr %4, align 4, !tbaa !3
  %61 = zext i32 %60 to i64
  %62 = getelementptr inbounds nuw %struct.trav_link_t, ptr %59, i64 %61
  %63 = getelementptr inbounds nuw %struct.trav_link_t, ptr %62, i32 0, i32 0
  %64 = load ptr, ptr %63, align 8, !tbaa !88
  call void @free(ptr noundef %64) #10
  br label %65

65:                                               ; preds = %51
  %66 = load i32, ptr %4, align 4, !tbaa !3
  %67 = add i32 %66, 1
  store i32 %67, ptr %4, align 4, !tbaa !3
  br label %39, !llvm.loop !101

68:                                               ; preds = %39
  %69 = load ptr, ptr %2, align 8, !tbaa !77
  %70 = getelementptr inbounds nuw %struct.trav_table_t, ptr %69, i32 0, i32 3
  %71 = load ptr, ptr %70, align 8, !tbaa !82
  %72 = load i32, ptr %3, align 4, !tbaa !3
  %73 = zext i32 %72 to i64
  %74 = getelementptr inbounds nuw %struct.trav_obj_t, ptr %71, i64 %73
  %75 = getelementptr inbounds nuw %struct.trav_obj_t, ptr %74, i32 0, i32 5
  %76 = load ptr, ptr %75, align 8, !tbaa !87
  call void @free(ptr noundef %76) #10
  call void @llvm.lifetime.end.p0(i64 4, ptr %4) #10
  br label %77

77:                                               ; preds = %68, %20
  br label %78

78:                                               ; preds = %77
  %79 = load i32, ptr %3, align 4, !tbaa !3
  %80 = add i32 %79, 1
  store i32 %80, ptr %3, align 4, !tbaa !3
  br label %13, !llvm.loop !102

81:                                               ; preds = %13
  %82 = load ptr, ptr %2, align 8, !tbaa !77
  %83 = getelementptr inbounds nuw %struct.trav_table_t, ptr %82, i32 0, i32 3
  %84 = load ptr, ptr %83, align 8, !tbaa !82
  call void @free(ptr noundef %84) #10
  call void @llvm.lifetime.end.p0(i64 4, ptr %3) #10
  br label %85

85:                                               ; preds = %81, %7
  %86 = load ptr, ptr %2, align 8, !tbaa !77
  call void @free(ptr noundef %86) #10
  br label %87

87:                                               ; preds = %85, %1
  ret void
}