; Function Attrs: nounwind uwtable
define void @trav_table_free(ptr noundef captures(address_is_null) %0) local_unnamed_addr #1 {
  %.not = icmp eq ptr %0, null
  br i1 %.not, label %35, label %2

2:                                                ; preds = %1
  %3 = getelementptr inbounds nuw i8, ptr %0, i64 24
  %4 = load ptr, ptr %3, align 8, !tbaa !74
  %.not23 = icmp eq ptr %4, null
  br i1 %.not23, label %34, label %.preheader25

.preheader25:                                     ; preds = %2
  %5 = getelementptr inbounds nuw i8, ptr %0, i64 16
  %6 = load i64, ptr %5, align 8, !tbaa !70
  %.not30 = icmp eq i64 %6, 0
  br i1 %.not30, label %._crit_edge29, label %.lr.ph28

.lr.ph28:                                         ; preds = %.preheader25, %28
  %7 = phi i64 [ %30, %28 ], [ 0, %.preheader25 ]
  %.01927 = phi i32 [ %29, %28 ], [ 0, %.preheader25 ]
  %8 = load ptr, ptr %3, align 8, !tbaa !74
  %9 = getelementptr inbounds nuw %struct.trav_obj_t, ptr %8, i64 %7, i32 3
  %10 = load ptr, ptr %9, align 8, !tbaa !75
  tail call void @free(ptr noundef %10) #18
  %11 = load ptr, ptr %3, align 8, !tbaa !74
  %12 = getelementptr inbounds nuw %struct.trav_obj_t, ptr %11, i64 %7, i32 7
  %13 = load i64, ptr %12, align 8, !tbaa !80
  %.not24 = icmp eq i64 %13, 0
  br i1 %.not24, label %28, label %.lr.ph

.lr.ph:                                           ; preds = %.lr.ph28, %.lr.ph
  %14 = phi ptr [ %22, %.lr.ph ], [ %11, %.lr.ph28 ]
  %15 = phi i64 [ %21, %.lr.ph ], [ 0, %.lr.ph28 ]
  %.026 = phi i32 [ %20, %.lr.ph ], [ 0, %.lr.ph28 ]
  %16 = getelementptr inbounds nuw %struct.trav_obj_t, ptr %14, i64 %7, i32 5
  %17 = load ptr, ptr %16, align 8, !tbaa !82
  %18 = getelementptr inbounds nuw %struct.trav_link_t, ptr %17, i64 %15
  %19 = load ptr, ptr %18, align 8, !tbaa !83
  tail call void @free(ptr noundef %19) #18
  %20 = add i32 %.026, 1
  %21 = zext i32 %20 to i64
  %22 = load ptr, ptr %3, align 8, !tbaa !74
  %23 = getelementptr inbounds nuw %struct.trav_obj_t, ptr %22, i64 %7, i32 7
  %24 = load i64, ptr %23, align 8, !tbaa !80
  %25 = icmp ugt i64 %24, %21
  br i1 %25, label %.lr.ph, label %._crit_edge, !llvm.loop !91

._crit_edge:                                      ; preds = %.lr.ph
  %26 = getelementptr inbounds nuw %struct.trav_obj_t, ptr %22, i64 %7, i32 5
  %27 = load ptr, ptr %26, align 8, !tbaa !82
  tail call void @free(ptr noundef %27) #18
  br label %28

28:                                               ; preds = %.lr.ph28, %._crit_edge
  %29 = add i32 %.01927, 1
  %30 = zext i32 %29 to i64
  %31 = load i64, ptr %5, align 8, !tbaa !70
  %32 = icmp ugt i64 %31, %30
  br i1 %32, label %.lr.ph28, label %._crit_edge29.loopexit, !llvm.loop !92

._crit_edge29.loopexit:                           ; preds = %28
  %.pre = load ptr, ptr %3, align 8, !tbaa !74
  br label %._crit_edge29

._crit_edge29:                                    ; preds = %._crit_edge29.loopexit, %.preheader25
  %33 = phi ptr [ %.pre, %._crit_edge29.loopexit ], [ %4, %.preheader25 ]
  tail call void @free(ptr noundef %33) #18
  br label %34

34:                                               ; preds = %._crit_edge29, %2
  tail call void @free(ptr noundef nonnull %0) #18
  br label %35

35:                                               ; preds = %34, %1
  ret void
}